target datalayout = "e-m:e-p270:32:32-p271:32:32-p272:64:64-i64:64-i128:128-f80:128-n8:16:32:64-S128"
target triple = "x86_64-pc-linux-gnu"

; Function Attrs: nounwind uwtable
define internal i64 @HUF_getNbBits(i64 noundef %0) #0 {
  %2 = alloca i64, align 8
  store i64 %0, ptr %2, align 8, !tbaa !8
  %3 = load i64, ptr %2, align 8, !tbaa !8
  %4 = and i64 %3, 255
  ret i64 %4
}

; Function Attrs: nounwind uwtable
define dso_local i32 @HUF_getNbBitsFromCTable(ptr noundef %0, i32 noundef %1) #0 {
  %3 = alloca ptr, align 8
  %4 = alloca i32, align 4
  %5 = alloca ptr, align 8
  store ptr %0, ptr %3, align 8, !tbaa !10
  store i32 %1, ptr %4, align 4, !tbaa !12
  call void @llvm.lifetime.start.p0(i64 8, ptr %5) #8
  %6 = load ptr, ptr %3, align 8, !tbaa !10
  %7 = getelementptr inbounds i64, ptr %6, i64 1
  store ptr %7, ptr %5, align 8, !tbaa !10
  %8 = load ptr, ptr %5, align 8, !tbaa !10
  %9 = load i32, ptr %4, align 4, !tbaa !12
  %10 = zext i32 %9 to i64
  %11 = getelementptr inbounds nuw i64, ptr %8, i64 %10
  %12 = load i64, ptr %11, align 8, !tbaa !8
  %13 = call i64 @HUF_getNbBits(i64 noundef %12)
  %14 = trunc i64 %13 to i32
  call void @llvm.lifetime.end.p0(i64 8, ptr %5) #8
  ret i32 %14
}