; Function Attrs: mustprogress nofree norecurse nosync nounwind willreturn memory(argmem: read) uwtable
define dso_local range(i32 0, 256) i32 @HUF_getNbBitsFromCTable(ptr noundef readonly captures(none) %0, i32 noundef %1) local_unnamed_addr #4 {
  %3 = getelementptr inbounds nuw i8, ptr %0, i64 8
  %4 = zext i32 %1 to i64
  %5 = getelementptr inbounds nuw i64, ptr %3, i64 %4
  %6 = load i64, ptr %5, align 8, !tbaa !9
  %7 = trunc i64 %6 to i32
  %8 = and i32 %7, 255
  ret i32 %8
}